; Function Attrs: mustprogress uwtable
define dso_local void @_Z15OutputFunctionsRSo(ptr noundef nonnull align 8 dereferenceable(8) %0) local_unnamed_addr #4 personality ptr @__gxx_personality_v0 {
  %2 = alloca %"class.std::__cxx11::basic_string", align 8
  %3 = alloca %"class.std::allocator.15", align 1
  tail call void @_Z8outputlnRSo(ptr noundef nonnull align 8 dereferenceable(8) %0)
  tail call void @_Z8outputlnRSo(ptr noundef nonnull align 8 dereferenceable(8) %0)
  call void @_ZNSaIcEC1Ev(ptr noundef nonnull align 1 dereferenceable(1) %3) #22
  invoke void @_ZNSt7__cxx1112basic_stringIcSt11char_traitsIcESaIcEEC1EPKcRKS3_(ptr noundef nonnull align 8 dereferenceable(32) %2, ptr noundef nonnull @.str.88, ptr noundef nonnull align 1 dereferenceable(1) %3)
          to label %4 unwind label %10

4:                                                ; preds = %1
  invoke void @_Z19output_comment_lineRSoRKNSt7__cxx1112basic_stringIcSt11char_traitsIcESaIcEEE(ptr noundef nonnull align 8 dereferenceable(8) %0, ptr noundef nonnull align 8 dereferenceable(32) %2)
          to label %5 unwind label %12

5:                                                ; preds = %4
  call void @_ZNSt7__cxx1112basic_stringIcSt11char_traitsIcESaIcEED1Ev(ptr noundef nonnull align 8 dereferenceable(32) %2) #22
  call void @_ZNSaIcED1Ev(ptr noundef nonnull align 1 dereferenceable(1) %3) #22
  %6 = load ptr, ptr @_ZL8FuncList, align 8
  %7 = load ptr, ptr getelementptr inbounds nuw (i8, ptr @_ZL8FuncList, i64 8), align 8
  %.not5.i = icmp eq ptr %6, %7
  br i1 %.not5.i, label %_ZSt8for_eachIN9__gnu_cxx17__normal_iteratorIPP8FunctionSt6vectorIS3_SaIS3_EEEESt9binder2ndISt26pointer_to_binary_functionIS3_PSoiEEET0_T_SF_SE_.exit, label %.lr.ph.i

.lr.ph.i:                                         ; preds = %5, %.lr.ph.i
  %.sroa.02.06.i = phi ptr [ %9, %.lr.ph.i ], [ %6, %5 ]
  %8 = load ptr, ptr %.sroa.02.06.i, align 8
  call void @_ZN8Function6OutputERSo(ptr noundef nonnull align 8 dereferenceable(424) %8, ptr noundef nonnull align 8 dereferenceable(8) %0)
  %9 = getelementptr inbounds nuw i8, ptr %.sroa.02.06.i, i64 8
  %.not.i = icmp eq ptr %9, %7
  br i1 %.not.i, label %_ZSt8for_eachIN9__gnu_cxx17__normal_iteratorIPP8FunctionSt6vectorIS3_SaIS3_EEEESt9binder2ndISt26pointer_to_binary_functionIS3_PSoiEEET0_T_SF_SE_.exit, label %.lr.ph.i, !llvm.loop !38

_ZSt8for_eachIN9__gnu_cxx17__normal_iteratorIPP8FunctionSt6vectorIS3_SaIS3_EEEESt9binder2ndISt26pointer_to_binary_functionIS3_PSoiEEET0_T_SF_SE_.exit: ; preds = %.lr.ph.i, %5
  ret void

10:                                               ; preds = %1
  %11 = landingpad { ptr, i32 }
          cleanup
  br label %14

12:                                               ; preds = %4
  %13 = landingpad { ptr, i32 }
          cleanup
  call void @_ZNSt7__cxx1112basic_stringIcSt11char_traitsIcESaIcEED1Ev(ptr noundef nonnull align 8 dereferenceable(32) %2) #22
  br label %14

14:                                               ; preds = %12, %10
  %.pn = phi { ptr, i32 } [ %13, %12 ], [ %11, %10 ]
  call void @_ZNSaIcED1Ev(ptr noundef nonnull align 1 dereferenceable(1) %3) #22
  resume { ptr, i32 } %.pn
}